target datalayout = "e-m:e-p270:32:32-p271:32:32-p272:64:64-i64:64-i128:128-f80:128-n8:16:32:64-S128"
target triple = "x86_64-unknown-linux-gnu"

%struct.ArchCPU = type { %struct.CPUState, %struct.CPUArchState, ptr, ptr, %struct.RISCVCPUConfig, ptr, i32, ptr, [8 x i8] }
%struct.CPUState = type { %struct.DeviceState, ptr, i32, i32, ptr, i32, i8, i8, ptr, i8, i8, i8, i8, i8, i8, i8, i8, i32, i32, i32, i32, i64, i64, i64, [1 x %struct.__jmp_buf_tag], %struct.QemuMutex, %struct.anon, ptr, i32, ptr, ptr, ptr, ptr, i32, i32, %union.anon, %union.anon.0, %union.anon.1, ptr, ptr, i64, i32, ptr, ptr, ptr, i32, i64, i32, %struct.QemuLockCnt, [1 x i64], ptr, i32, i32, i32, i32, i32, ptr, i8, i8, i64, i8, i8, ptr, [8 x i8], [0 x i8], %struct.CPUNegativeOffsetState }
%struct.DeviceState = type { %struct.Object, ptr, ptr, i8, i8, i64, ptr, i32, i8, ptr, %struct.NamedGPIOListHead, %struct.NamedClockListHead, %struct.BusStateHead, i32, i32, i32, %struct.ResettableState, ptr, %struct.MemReentrancyGuard }
%struct.Object = type { ptr, ptr, ptr, i32, ptr }
%struct.NamedGPIOListHead = type { ptr }
%struct.NamedClockListHead = type { ptr }
%struct.BusStateHead = type { ptr }
%struct.ResettableState = type { i32, i8, i8 }
%struct.MemReentrancyGuard = type { i8 }
%struct.__jmp_buf_tag = type { [8 x i64], i32, %struct.__sigset_t }
%struct.__sigset_t = type { [16 x i64] }
%struct.QemuMutex = type { %union.pthread_mutex_t, i8 }
%union.pthread_mutex_t = type { %struct.__pthread_mutex_s }
%struct.__pthread_mutex_s = type { i32, i32, i32, i32, i32, i16, i16, %struct.__pthread_internal_list }
%struct.__pthread_internal_list = type { ptr, ptr }
%struct.anon = type { ptr, ptr }
%union.anon = type { %struct.QTailQLink }
%struct.QTailQLink = type { ptr, ptr }
%union.anon.0 = type { %struct.QTailQLink }
%union.anon.1 = type { %struct.QTailQLink }
%struct.QemuLockCnt = type { i32 }
%struct.CPUNegativeOffsetState = type { %struct.CPUTLB, %union.IcountDecr, i8, [11 x i8] }
%struct.CPUTLB = type { %struct.CPUTLBCommon, [16 x %struct.CPUTLBDesc], [16 x %struct.CPUTLBDescFast] }
%struct.CPUTLBCommon = type { %struct.QemuSpin, i16, i64, i64, i64 }
%struct.QemuSpin = type { i32 }
%struct.CPUTLBDesc = type { i64, i64, i64, i64, i64, i64, [8 x %union.CPUTLBEntry], [8 x %struct.CPUTLBEntryFull], ptr }
%union.CPUTLBEntry = type { %struct.anon.2 }
%struct.anon.2 = type { i64, i64, i64, i64 }
%struct.CPUTLBEntryFull = type { i64, i64, %struct.MemTxAttrs, i8, i8, [3 x i8], %union.anon.3 }
%struct.MemTxAttrs = type { i32 }
%union.anon.3 = type { %struct.anon.4 }
%struct.anon.4 = type { i8, i8, i8 }
%struct.CPUTLBDescFast = type { i64, ptr }
%union.IcountDecr = type { i32 }
%struct.CPUArchState = type { [32 x i64], [32 x i64], [512 x i64], i64, i64, i64, i64, i64, i8, i64, i64, i64, [32 x i64], i64, %struct.float_status, i64, i64, i64, i64, i64, i64, i32, i32, i32, i32, i32, i64, i64, i64, i8, i64, i64, i64, i64, i64, i8, i8, i64, i64, i64, i64, i64, i64, i64, i64, i64, i64, i64, i64, i64, i64, i64, [64 x i8], [64 x i8], i64, i64, i64, i64, i64, i64, i64, i64, i64, i64, i64, i64, i64, i64, i64, i64, i64, [64 x i8], i64, i64, i64, i64, i64, i64, i64, i64, i64, i64, i64, i64, i64, i64, i64, i64, i64, i64, i64, i8, i8, i64, i64, i64, [32 x %struct.PMUCTRState], [32 x i64], [32 x i64], i64, i64, i64, i64, %struct.pmp_table_t, i64, i64, [2 x i64], [2 x i64], [2 x i64], [2 x ptr], [2 x ptr], [2 x ptr], i64, i8, ptr, ptr, [4 x ptr], [4 x ptr], i8, i64, i64, i64, i64, i64, i64, i64, i64, [4 x i64], [4 x i64], [4 x i64], i64, i64, i64, i64, ptr, ptr, i8, i64, i64, [8 x i8] }
%struct.float_status = type { i16, i8, i8, i8, i8, i8, i8, i8, i8, i8, i8, i8 }
%struct.PMUCTRState = type { i64, i64, i64, i64, i8, i64 }
%struct.pmp_table_t = type { [16 x %struct.pmp_entry_t], [16 x %struct.pmp_addr_t], i32 }
%struct.pmp_entry_t = type { i64, i8 }
%struct.pmp_addr_t = type { i64, i64 }
%struct.RISCVCPUConfig = type { i8, i8, i8, i8, i8, i8, i8, i8, i8, i8, i8, i8, i8, i8, i8, i8, i8, i8, i8, i8, i8, i8, i8, i8, i8, i8, i8, i8, i8, i8, i8, i8, i8, i8, i8, i8, i8, i8, i8, i8, i8, i8, i8, i8, i8, i8, i8, i8, i8, i8, i8, i8, i8, i8, i8, i8, i8, i8, i8, i8, i8, i8, i8, i8, i8, i8, i8, i8, i8, i8, i8, i8, i8, i8, i8, i8, i8, i8, i32, i64, i64, i8, i8, i8, i8, i8, i8, i8, i8, i8, i8, i8, i8, i32, ptr, ptr, ptr, ptr, i16, i16, i16, i16, i8, i8, i8, i8, i8, %struct.RISCVSATPMap }
%struct.RISCVSATPMap = type { i16, i16, i16 }

; Function Attrs: nounwind sspstrong uwtable
define internal ptr @env_archcpu(ptr noundef %env) #0 {
entry:
  %env.addr = alloca ptr, align 8
  store ptr %env, ptr %env.addr, align 8
  %0 = load ptr, ptr %env.addr, align 8
  %add.ptr = getelementptr i8, ptr %0, i64 -10176
  ret ptr %add.ptr
}

; Function Attrs: nounwind sspstrong uwtable
define dso_local zeroext i1 @riscv_pmu_ctr_monitor_cycles(ptr noundef %env, i32 noundef %target_ctr) #0 {
entry:
  %retval = alloca i1, align 1
  %env.addr = alloca ptr, align 8
  %target_ctr.addr = alloca i32, align 4
  %cpu = alloca ptr, align 8
  %event_idx = alloca i32, align 4
  %ctr_idx = alloca i32, align 4
  store ptr %env, ptr %env.addr, align 8
  store i32 %target_ctr, ptr %target_ctr.addr, align 4
  %0 = load i32, ptr %target_ctr.addr, align 4
  %cmp = icmp eq i32 %0, 0
  br i1 %cmp, label %if.then, label %if.end

if.then:                                          ; preds = %entry
  store i1 true, ptr %retval, align 1
  br label %return

if.end:                                           ; preds = %entry
  %1 = load ptr, ptr %env.addr, align 8
  %call = call ptr @env_archcpu(ptr noundef %1)
  store ptr %call, ptr %cpu, align 8
  %2 = load ptr, ptr %cpu, align 8
  %pmu_event_ctr_map = getelementptr inbounds %struct.ArchCPU, ptr %2, i32 0, i32 7
  %3 = load ptr, ptr %pmu_event_ctr_map, align 16
  %tobool = icmp ne ptr %3, null
  br i1 %tobool, label %if.end2, label %if.then1

if.then1:                                         ; preds = %if.end
  store i1 false, ptr %retval, align 1
  br label %return

if.end2:                                          ; preds = %if.end
  store i32 1, ptr %event_idx, align 4
  %4 = load ptr, ptr %cpu, align 8
  %pmu_event_ctr_map3 = getelementptr inbounds %struct.ArchCPU, ptr %4, i32 0, i32 7
  %5 = load ptr, ptr %pmu_event_ctr_map3, align 16
  %6 = load i32, ptr %event_idx, align 4
  %conv = zext i32 %6 to i64
  %7 = inttoptr i64 %conv to ptr
  %call4 = call ptr @g_hash_table_lookup(ptr noundef %5, ptr noundef %7)
  %8 = ptrtoint ptr %call4 to i64
  %conv5 = trunc i64 %8 to i32
  store i32 %conv5, ptr %ctr_idx, align 4
  %9 = load i32, ptr %ctr_idx, align 4
  %tobool6 = icmp ne i32 %9, 0
  br i1 %tobool6, label %if.end8, label %if.then7

if.then7:                                         ; preds = %if.end2
  store i1 false, ptr %retval, align 1
  br label %return

if.end8:                                          ; preds = %if.end2
  %10 = load i32, ptr %target_ctr.addr, align 4
  %11 = load i32, ptr %ctr_idx, align 4
  %cmp9 = icmp eq i32 %10, %11
  %cond = select i1 %cmp9, i32 1, i32 0
  %tobool11 = icmp ne i32 %cond, 0
  store i1 %tobool11, ptr %retval, align 1
  br label %return

return:                                           ; preds = %if.end8, %if.then7, %if.then1, %if.then
  %12 = load i1, ptr %retval, align 1
  ret i1 %12
}